; Function Attrs: mustprogress nofree norecurse nosync nounwind willreturn memory(argmem: read) uwtable
define noundef zeroext i1 @_ZN11processor_t9slow_pathEv(ptr noundef nonnull readonly align 8 captures(none) dereferenceable(266872) %0) local_unnamed_addr #3 align 2 {
  %2 = getelementptr inbounds nuw i8, ptr %0, i64 8
  %3 = load i8, ptr %2, align 8, !tbaa !3, !range !131, !noundef !132
  %4 = trunc nuw i8 %3 to i1
  %5 = getelementptr inbounds nuw i8, ptr %0, i64 3836
  %6 = load i32, ptr %5, align 4
  %.not = icmp ne i32 %6, 0
  %or.cond.not = select i1 %4, i1 true, i1 %.not
  br i1 %or.cond.not, label %27, label %7

7:                                                ; preds = %1
  %8 = getelementptr inbounds nuw i8, ptr %0, i64 2416
  %9 = load i8, ptr %8, align 8, !tbaa !133, !range !131, !noundef !132
  %10 = trunc nuw i8 %9 to i1
  br i1 %10, label %27, label %11

11:                                               ; preds = %7
  %12 = getelementptr inbounds nuw i8, ptr %0, i64 3969
  %13 = load i8, ptr %12, align 1, !tbaa !134, !range !131, !noundef !132
  %14 = trunc nuw i8 %13 to i1
  br i1 %14, label %27, label %15

15:                                               ; preds = %11
  %16 = getelementptr inbounds nuw i8, ptr %0, i64 3968
  %17 = load i8, ptr %16, align 8, !tbaa !135, !range !131, !noundef !132
  %18 = trunc nuw i8 %17 to i1
  br i1 %18, label %27, label %19

19:                                               ; preds = %15
  %20 = getelementptr inbounds nuw i8, ptr %0, i64 4257
  %21 = load i8, ptr %20, align 1, !tbaa !136, !range !131, !noundef !132
  %22 = trunc nuw i8 %21 to i1
  br i1 %22, label %27, label %23

23:                                               ; preds = %19
  %24 = getelementptr inbounds nuw i8, ptr %0, i64 4258
  %25 = load i8, ptr %24, align 2, !tbaa !137, !range !131, !noundef !132
  %26 = trunc nuw i8 %25 to i1
  br label %27

27:                                               ; preds = %23, %19, %15, %11, %7, %1
  %28 = phi i1 [ true, %19 ], [ true, %15 ], [ true, %11 ], [ true, %7 ], [ true, %1 ], [ %26, %23 ]
  ret i1 %28
}